target datalayout = "e-m:e-p270:32:32-p271:32:32-p272:64:64-i64:64-i128:128-f80:128-n8:16:32:64-S128"
target triple = "x86_64-pc-linux-gnu"

%"struct.std::__detail::_Hash_node_base" = type { ptr }
%"struct.std::__detail::_Prime_rehash_policy" = type { float, i64 }
%"struct.std::_Rb_tree_header" = type { %"struct.std::_Rb_tree_node_base", i64 }
%"struct.std::_Rb_tree_node_base" = type { i32, ptr, ptr, ptr }
%class.V3ErrorCode = type { i8 }
%class.LogicMTask = type { %class.V3GraphVertex, %class.V3List.4, i32, %"struct.std::array.5", i32, i64, %"class.std::unordered_set", %"struct.std::array.8", %"class.std::set", %class.V3List.12, %class.V3List.13 }
%class.V3GraphVertex = type { ptr, %class.V3ListLinks.1, %class.V3List, %class.V3List.2, double, i32, i32, %union.anon.3 }
%class.V3ListLinks.1 = type { ptr, ptr }
%class.V3List = type { ptr, ptr }
%class.V3List.2 = type { ptr, ptr }
%union.anon.3 = type { ptr }
%class.V3List.4 = type { ptr, ptr }
%"struct.std::array.5" = type { [2 x i32] }
%"class.std::unordered_set" = type { %"class.std::_Hashtable" }
%"class.std::_Hashtable" = type { ptr, i64, %"struct.std::__detail::_Hash_node_base", i64, %"struct.std::__detail::_Prime_rehash_policy", ptr }
%"struct.std::array.8" = type { [2 x %class.PairingHeap] }
%class.PairingHeap = type { %"struct.PairingHeap<EdgeKey>::Link" }
%"struct.PairingHeap<EdgeKey>::Link" = type { ptr }
%"class.std::set" = type { %"class.std::_Rb_tree" }
%"class.std::_Rb_tree" = type { %"struct.std::_Rb_tree<LogicMTask *, LogicMTask *, std::_Identity<LogicMTask *>, std::less<LogicMTask *>>::_Rb_tree_impl" }
%"struct.std::_Rb_tree<LogicMTask *, LogicMTask *, std::_Identity<LogicMTask *>, std::less<LogicMTask *>>::_Rb_tree_impl" = type { %"struct.std::_Rb_tree_key_compare", %"struct.std::_Rb_tree_header" }
%"struct.std::_Rb_tree_key_compare" = type { %"struct.std::less" }
%"struct.std::less" = type { i8 }
%class.V3List.12 = type { ptr, ptr }
%class.V3List.13 = type { ptr, ptr }

@_ZZN10LogicMTask11rttiClassIdEvE15aStaticVariable = linkonce_odr dso_local global i8 0, comdat, align 1
@.str.89 = private unnamed_addr constant [111 x i8] c"generated/home/dtcxzyw/WorkSpace/Projects/compilers/llvm-opt-benchmark/bench/verilator/verilator/src/V3Graph.h\00", align 1
@.str.110 = private unnamed_addr constant [38 x i8] c"V3GraphVertex is not of expected type\00", align 1

; Function Attrs: mustprogress nounwind uwtable
define linkonce_odr dso_local noundef i64 @_ZN10LogicMTask11rttiClassIdEv() #5 comdat align 2 {
  ret i64 ptrtoint (ptr @_ZZN10LogicMTask11rttiClassIdEvE15aStaticVariable to i64)
}

; Function Attrs: mustprogress nounwind uwtable
define linkonce_odr dso_local void @_ZN11V3ErrorCodeC2ENS_2enE(ptr noundef nonnull align 1 dereferenceable(1) %0, i8 noundef zeroext %1) unnamed_addr #5 comdat align 2 {
  %3 = alloca ptr, align 8
  %4 = alloca i8, align 1
  store ptr %0, ptr %3, align 8
  store i8 %1, ptr %4, align 1
  %5 = load ptr, ptr %3, align 8
  %6 = getelementptr inbounds %class.V3ErrorCode, ptr %5, i32 0, i32 0
  %7 = load i8, ptr %4, align 1
  store i8 %7, ptr %6, align 1
  ret void
}

; Function Attrs: mustprogress uwtable
define linkonce_odr dso_local noundef zeroext i1 @_ZNK13V3GraphVertex2isIK10LogicMTaskEEbv(ptr noundef nonnull align 8 dereferenceable(80) %0) #4 comdat align 2 {
  %2 = alloca ptr, align 8
  store ptr %0, ptr %2, align 8
  %3 = load ptr, ptr %2, align 8
  %4 = call noundef i64 @_ZN10LogicMTask11rttiClassIdEv()
  %5 = load ptr, ptr %3, align 8
  %6 = getelementptr inbounds ptr, ptr %5, i64 0
  %7 = load ptr, ptr %6, align 8
  %8 = call noundef zeroext i1 %7(ptr noundef nonnull align 8 dereferenceable(80) %3, i64 noundef %4)
  ret i1 %8
}

; Function Attrs: mustprogress nounwind uwtable
define linkonce_odr dso_local noundef i32 @_ZNK10LogicMTask4costEv(ptr noundef nonnull align 8 dereferenceable(272) %0) #5 comdat align 2 {
  %2 = alloca ptr, align 8
  store ptr %0, ptr %2, align 8
  %3 = load ptr, ptr %2, align 8
  %4 = getelementptr inbounds %class.LogicMTask, ptr %3, i32 0, i32 2
  %5 = load i32, ptr %4, align 8
  ret i32 %5
}

; Function Attrs: mustprogress uwtable
define linkonce_odr dso_local noundef ptr @_ZNK13V3GraphVertex2asIK10LogicMTaskEEPKT_v(ptr noundef nonnull align 8 dereferenceable(80) %0) #4 comdat align 2 {
  %2 = alloca ptr, align 8
  %3 = alloca %class.V3ErrorCode, align 1
  store ptr %0, ptr %2, align 8
  %4 = load ptr, ptr %2, align 8
  br label %5

5:                                                ; preds = %1
  %6 = call noundef zeroext i1 @_ZNK13V3GraphVertex2isIK10LogicMTaskEEbv(ptr noundef nonnull align 8 dereferenceable(80) %4)
  %7 = xor i1 %6, true
  %8 = xor i1 %7, true
  %9 = xor i1 %8, true
  br i1 %9, label %10, label %16

10:                                               ; preds = %5
  call void @_ZN11V3ErrorCodeC2ENS_2enE(ptr noundef nonnull align 1 dereferenceable(1) %3, i8 noundef zeroext 4)
  %11 = getelementptr inbounds %class.V3ErrorCode, ptr %3, i32 0, i32 0
  %12 = load i8, ptr %11, align 1
  %13 = call noundef nonnull align 8 dereferenceable(112) ptr @_ZN7V3Error19v3errorPrepFileLineB5cxx11E11V3ErrorCodePKcib(i8 %12, ptr noundef @.str.89, i32 noundef 263, i1 noundef zeroext true)
  %14 = call noundef nonnull align 8 dereferenceable(112) ptr @_ZN7V3Error10v3errorStrB5cxx11Ev()
  %15 = call noundef nonnull align 8 dereferenceable(8) ptr @_ZStlsISt11char_traitsIcEERSt13basic_ostreamIcT_ES5_PKc(ptr noundef nonnull align 8 dereferenceable(8) %14, ptr noundef @.str.110)
  call void @_ZNK13V3GraphVertex15v3errorEndFatalERNSt7__cxx1119basic_ostringstreamIcSt11char_traitsIcESaIcEEE(ptr noundef nonnull align 8 dereferenceable(80) %4, ptr noundef nonnull align 8 dereferenceable(112) %15)
  br label %16

16:                                               ; preds = %10, %5
  br label %17

17:                                               ; preds = %16
  ret ptr %4
}

; Function Attrs: mustprogress uwtable
define internal noundef i32 @"_ZZL20debugMTaskGraphStatsR7V3GraphRKNSt7__cxx1112basic_stringIcSt11char_traitsIcESaIcEEEENK3$_0clEPK13V3GraphVertex"(ptr noundef nonnull align 1 dereferenceable(1) %0, ptr noundef %1) #4 align 2 {
  %3 = alloca ptr, align 8
  %4 = alloca ptr, align 8
  store ptr %0, ptr %3, align 8
  store ptr %1, ptr %4, align 8
  %5 = load ptr, ptr %4, align 8
  %6 = call noundef ptr @_ZNK13V3GraphVertex2asIK10LogicMTaskEEPKT_v(ptr noundef nonnull align 8 dereferenceable(80) %5)
  %7 = call noundef i32 @_ZNK10LogicMTask4costEv(ptr noundef nonnull align 8 dereferenceable(272) %6)
  ret i32 %7
}

; Function Attrs: mustprogress nounwind uwtable
define linkonce_odr dso_local noundef ptr @_ZNKSt9_Any_data9_M_accessEv(ptr noundef nonnull align 8 dereferenceable(16) %0) #5 comdat align 2 {
  %2 = alloca ptr, align 8
  store ptr %0, ptr %2, align 8
  %3 = load ptr, ptr %2, align 8
  %4 = getelementptr inbounds [16 x i8], ptr %3, i64 0, i64 0
  ret ptr %4
}

; Function Attrs: mustprogress uwtable
define internal noundef i32 @"_ZSt13__invoke_implIjRZL20debugMTaskGraphStatsR7V3GraphRKNSt7__cxx1112basic_stringIcSt11char_traitsIcESaIcEEEE3$_0JPK13V3GraphVertexEET_St14__invoke_otherOT0_DpOT1_"(ptr noundef nonnull align 1 dereferenceable(1) %0, ptr noundef nonnull align 8 dereferenceable(8) %1) #4 {
  %3 = alloca ptr, align 8
  %4 = alloca ptr, align 8
  store ptr %0, ptr %3, align 8
  store ptr %1, ptr %4, align 8
  %5 = load ptr, ptr %3, align 8
  %6 = load ptr, ptr %4, align 8
  %7 = load ptr, ptr %6, align 8
  %8 = call noundef i32 @"_ZZL20debugMTaskGraphStatsR7V3GraphRKNSt7__cxx1112basic_stringIcSt11char_traitsIcESaIcEEEENK3$_0clEPK13V3GraphVertex"(ptr noundef nonnull align 1 dereferenceable(1) %5, ptr noundef %7)
  ret i32 %8
}

; Function Attrs: mustprogress nounwind uwtable
define internal noundef nonnull align 1 dereferenceable(1) ptr @"_ZNKSt9_Any_data9_M_accessIZL20debugMTaskGraphStatsR7V3GraphRKNSt7__cxx1112basic_stringIcSt11char_traitsIcESaIcEEEE3$_0EERKT_v"(ptr noundef nonnull align 8 dereferenceable(16) %0) #5 align 2 {
  %2 = alloca ptr, align 8
  store ptr %0, ptr %2, align 8
  %3 = load ptr, ptr %2, align 8
  %4 = call noundef ptr @_ZNKSt9_Any_data9_M_accessEv(ptr noundef nonnull align 8 dereferenceable(16) %3) #3
  ret ptr %4
}

; Function Attrs: mustprogress uwtable
define internal noundef i64 @"_ZSt10__invoke_rImRZL20debugMTaskGraphStatsR7V3GraphRKNSt7__cxx1112basic_stringIcSt11char_traitsIcESaIcEEEE3$_0JPK13V3GraphVertexEENSt9enable_ifIX16is_invocable_r_vIT_T0_DpT1_EESG_E4typeEOSH_DpOSI_"(ptr noundef nonnull align 1 dereferenceable(1) %0, ptr noundef nonnull align 8 dereferenceable(8) %1) #4 {
  %3 = alloca ptr, align 8
  %4 = alloca ptr, align 8
  store ptr %0, ptr %3, align 8
  store ptr %1, ptr %4, align 8
  %5 = load ptr, ptr %3, align 8
  %6 = load ptr, ptr %4, align 8
  %7 = call noundef i32 @"_ZSt13__invoke_implIjRZL20debugMTaskGraphStatsR7V3GraphRKNSt7__cxx1112basic_stringIcSt11char_traitsIcESaIcEEEE3$_0JPK13V3GraphVertexEET_St14__invoke_otherOT0_DpOT1_"(ptr noundef nonnull align 1 dereferenceable(1) %5, ptr noundef nonnull align 8 dereferenceable(8) %6)
  %8 = zext i32 %7 to i64
  ret i64 %8
}

; Function Attrs: mustprogress nounwind uwtable
define internal noundef ptr @"_ZNSt14_Function_base13_Base_managerIZL20debugMTaskGraphStatsR7V3GraphRKNSt7__cxx1112basic_stringIcSt11char_traitsIcESaIcEEEE3$_0E14_M_get_pointerERKSt9_Any_data"(ptr noundef nonnull align 8 dereferenceable(16) %0) #5 align 2 {
  %2 = alloca ptr, align 8
  %3 = alloca ptr, align 8
  store ptr %0, ptr %2, align 8
  %4 = load ptr, ptr %2, align 8
  %5 = call noundef nonnull align 1 dereferenceable(1) ptr @"_ZNKSt9_Any_data9_M_accessIZL20debugMTaskGraphStatsR7V3GraphRKNSt7__cxx1112basic_stringIcSt11char_traitsIcESaIcEEEE3$_0EERKT_v"(ptr noundef nonnull align 8 dereferenceable(16) %4) #3
  store ptr %5, ptr %3, align 8
  %6 = load ptr, ptr %3, align 8
  ret ptr %6
}

; Function Attrs: mustprogress uwtable
define internal noundef i64 @"_ZNSt17_Function_handlerIFmPK13V3GraphVertexEZL20debugMTaskGraphStatsR7V3GraphRKNSt7__cxx1112basic_stringIcSt11char_traitsIcESaIcEEEE3$_0E9_M_invokeERKSt9_Any_dataOS2_"(ptr noundef nonnull align 8 dereferenceable(16) %0, ptr noundef nonnull align 8 dereferenceable(8) %1) #4 align 2 {
  %3 = alloca ptr, align 8
  %4 = alloca ptr, align 8
  store ptr %0, ptr %3, align 8
  store ptr %1, ptr %4, align 8
  %5 = load ptr, ptr %3, align 8
  %6 = call noundef ptr @"_ZNSt14_Function_base13_Base_managerIZL20debugMTaskGraphStatsR7V3GraphRKNSt7__cxx1112basic_stringIcSt11char_traitsIcESaIcEEEE3$_0E14_M_get_pointerERKSt9_Any_data"(ptr noundef nonnull align 8 dereferenceable(16) %5) #3
  %7 = load ptr, ptr %4, align 8
  %8 = call noundef i64 @"_ZSt10__invoke_rImRZL20debugMTaskGraphStatsR7V3GraphRKNSt7__cxx1112basic_stringIcSt11char_traitsIcESaIcEEEE3$_0JPK13V3GraphVertexEENSt9enable_ifIX16is_invocable_r_vIT_T0_DpT1_EESG_E4typeEOSH_DpOSI_"(ptr noundef nonnull align 1 dereferenceable(1) %6, ptr noundef nonnull align 8 dereferenceable(8) %7)
  ret i64 %8
}