; Function Attrs: mustprogress uwtable
define internal noundef i64 @"_ZNSt17_Function_handlerIFmPK13V3GraphVertexEZL20debugMTaskGraphStatsR7V3GraphRKNSt7__cxx1112basic_stringIcSt11char_traitsIcESaIcEEEE3$_0E9_M_invokeERKSt9_Any_dataOS2_"(ptr nocapture nonnull readnone align 8 %0, ptr nocapture noundef nonnull readonly align 8 dereferenceable(8) %1) #4 align 2 {
  %.val = load ptr, ptr %1, align 8
  %3 = load ptr, ptr %.val, align 8
  %4 = load ptr, ptr %3, align 8
  %5 = tail call noundef zeroext i1 %4(ptr noundef nonnull align 8 dereferenceable(80) %.val, i64 noundef ptrtoint (ptr @_ZZN10LogicMTask11rttiClassIdEvE15aStaticVariable to i64))
  br i1 %5, label %"_ZSt10__invoke_rImRZL20debugMTaskGraphStatsR7V3GraphRKNSt7__cxx1112basic_stringIcSt11char_traitsIcESaIcEEEE3$_0JPK13V3GraphVertexEENSt9enable_ifIX16is_invocable_r_vIT_T0_DpT1_EESG_E4typeEOSH_DpOSI_.exit", label %6

6:                                                ; preds = %2
  %7 = tail call noundef nonnull align 8 dereferenceable(112) ptr @_ZN7V3Error19v3errorPrepFileLineB5cxx11E11V3ErrorCodePKcib(i8 4, ptr noundef nonnull @.str.89, i32 noundef 263, i1 noundef zeroext true)
  %8 = tail call noundef nonnull align 8 dereferenceable(112) ptr @_ZN7V3Error10v3errorStrB5cxx11Ev()
  %9 = tail call noundef nonnull align 8 dereferenceable(8) ptr @_ZStlsISt11char_traitsIcEERSt13basic_ostreamIcT_ES5_PKc(ptr noundef nonnull align 8 dereferenceable(8) %8, ptr noundef nonnull @.str.110)
  tail call void @_ZNK13V3GraphVertex15v3errorEndFatalERNSt7__cxx1119basic_ostringstreamIcSt11char_traitsIcESaIcEEE(ptr noundef nonnull align 8 dereferenceable(80) %.val, ptr noundef nonnull align 8 dereferenceable(112) %9)
  br label %"_ZSt10__invoke_rImRZL20debugMTaskGraphStatsR7V3GraphRKNSt7__cxx1112basic_stringIcSt11char_traitsIcESaIcEEEE3$_0JPK13V3GraphVertexEENSt9enable_ifIX16is_invocable_r_vIT_T0_DpT1_EESG_E4typeEOSH_DpOSI_.exit"

"_ZSt10__invoke_rImRZL20debugMTaskGraphStatsR7V3GraphRKNSt7__cxx1112basic_stringIcSt11char_traitsIcESaIcEEEE3$_0JPK13V3GraphVertexEENSt9enable_ifIX16is_invocable_r_vIT_T0_DpT1_EESG_E4typeEOSH_DpOSI_.exit": ; preds = %2, %6
  %10 = getelementptr inbounds i8, ptr %.val, i64 96
  %11 = load i32, ptr %10, align 8
  %12 = zext i32 %11 to i64
  ret i64 %12
}